target datalayout = "e-m:e-p270:32:32-p271:32:32-p272:64:64-i64:64-i128:128-f80:128-n8:16:32:64-S128"
target triple = "x86_64-pc-linux-gnu"

@sivVALUE = internal global i64 0, align 8
@sivINDEFINITE_LENGTH = internal global i64 0, align 8
@eASN1Error = global i64 0, align 8
@rb_cArray = external global i64, align 8
@.str.109 = private unnamed_addr constant [62 x i8] c"indefinite length form cannot be used with primitive encoding\00", align 1

; Function Attrs: inlinehint nounwind sspstrong willreturn memory(none) uwtable
define internal zeroext i1 @RB_TEST(i64 noundef %0) #8 {
  %2 = alloca i64, align 8
  store i64 %0, ptr %2, align 8, !tbaa !20
  %3 = load i64, ptr %2, align 8, !tbaa !20
  %4 = and i64 %3, -5
  %5 = icmp ne i64 %4, 0
  ret i1 %5
}

; Function Attrs: nounwind sspstrong uwtable
define internal i64 @ossl_asn1data_to_der(i64 noundef %0) #0 {
  %2 = alloca i64, align 8
  %3 = alloca i64, align 8
  %4 = alloca i64, align 8
  %5 = alloca i32, align 4
  store i64 %0, ptr %3, align 8, !tbaa !20
  call void @llvm.lifetime.start.p0(i64 8, ptr %4) #16
  %6 = load i64, ptr %3, align 8, !tbaa !20
  %7 = load i64, ptr @sivVALUE, align 8, !tbaa !20
  %8 = call i64 @rb_attr_get(i64 noundef %6, i64 noundef %7)
  store i64 %8, ptr %4, align 8, !tbaa !20
  %9 = load i64, ptr %4, align 8, !tbaa !20
  %10 = load i64, ptr @rb_cArray, align 8, !tbaa !20
  %11 = call i64 @rb_obj_is_kind_of(i64 noundef %9, i64 noundef %10)
  %12 = icmp ne i64 %11, 0
  br i1 %12, label %13, label %16

13:                                               ; preds = %1
  %14 = load i64, ptr %3, align 8, !tbaa !20
  %15 = call i64 @ossl_asn1cons_to_der(i64 noundef %14)
  store i64 %15, ptr %2, align 8
  store i32 1, ptr %5, align 4
  br label %26

16:                                               ; preds = %1
  %17 = load i64, ptr %3, align 8, !tbaa !20
  %18 = load i64, ptr @sivINDEFINITE_LENGTH, align 8, !tbaa !20
  %19 = call i64 @rb_attr_get(i64 noundef %17, i64 noundef %18)
  %20 = call zeroext i1 @RB_TEST(i64 noundef %19) #19
  br i1 %20, label %21, label %23

21:                                               ; preds = %16
  %22 = load i64, ptr @eASN1Error, align 8, !tbaa !20
  call void (i64, ptr, ...) @ossl_raise(i64 noundef %22, ptr noundef @.str.109) #17
  unreachable

23:                                               ; preds = %16
  %24 = load i64, ptr %3, align 8, !tbaa !20
  %25 = call i64 @ossl_asn1prim_to_der(i64 noundef %24)
  store i64 %25, ptr %2, align 8
  store i32 1, ptr %5, align 4
  br label %26

26:                                               ; preds = %23, %13
  call void @llvm.lifetime.end.p0(i64 8, ptr %4) #16
  %27 = load i64, ptr %2, align 8
  ret i64 %27
}