; Function Attrs: nounwind sspstrong uwtable
define internal i64 @ossl_asn1data_to_der(i64 noundef %0) #0 {
  %2 = load i64, ptr @sivVALUE, align 8, !tbaa !17
  %3 = tail call i64 @rb_attr_get(i64 noundef %0, i64 noundef %2) #9
  %4 = load i64, ptr @rb_cArray, align 8, !tbaa !17
  %5 = tail call i64 @rb_obj_is_kind_of(i64 noundef %3, i64 noundef %4) #9
  %.not = icmp eq i64 %5, 0
  br i1 %.not, label %8, label %6

6:                                                ; preds = %1
  %7 = tail call i64 @ossl_asn1cons_to_der(i64 noundef %0)
  br label %16

8:                                                ; preds = %1
  %9 = load i64, ptr @sivINDEFINITE_LENGTH, align 8, !tbaa !17
  %10 = tail call i64 @rb_attr_get(i64 noundef %0, i64 noundef %9) #9
  %11 = and i64 %10, -5
  %.not6 = icmp eq i64 %11, 0
  br i1 %.not6, label %14, label %12

12:                                               ; preds = %8
  %13 = load i64, ptr @eASN1Error, align 8, !tbaa !17
  tail call void (i64, ptr, ...) @ossl_raise(i64 noundef %13, ptr noundef nonnull @.str.109) #10
  unreachable

14:                                               ; preds = %8
  %15 = tail call i64 @ossl_asn1prim_to_der(i64 noundef %0)
  br label %16

16:                                               ; preds = %14, %6
  %.0 = phi i64 [ %7, %6 ], [ %15, %14 ]
  ret i64 %.0
}